target datalayout = "e-m:e-p270:32:32-p271:32:32-p272:64:64-i64:64-i128:128-f80:128-n8:16:32:64-S128"
target triple = "x86_64-pc-linux-gnu"

%class.HashtableTextDump = type { i32, ptr, ptr, ptr, ptr, i64, i32, i32 }

@.str.18 = private unnamed_addr constant [39 x i8] c"%s. Corrupted at line %d (file pos %d)\00", align 1
@.str.20 = private unnamed_addr constant [10 x i8] c"Truncated\00", align 1

; Function Attrs: mustprogress nounwind uwtable
define hidden void @_ZN17HashtableTextDump4quitEPKcS1_(ptr noundef nonnull align 8 dereferenceable(56) %0, ptr noundef %1, ptr noundef %2) #1 align 2 {
  %4 = alloca ptr, align 8
  %5 = alloca ptr, align 8
  %6 = alloca ptr, align 8
  store ptr %0, ptr %4, align 8
  store ptr %1, ptr %5, align 8
  store ptr %2, ptr %6, align 8
  %7 = load ptr, ptr %5, align 8
  %8 = load ptr, ptr %6, align 8
  call void @_Z29vm_exit_during_initializationPKcS0_(ptr noundef %7, ptr noundef %8)
  ret void
}

; Function Attrs: mustprogress nounwind uwtable
define hidden void @_ZN17HashtableTextDump9corruptedEPKcS1_(ptr noundef nonnull align 8 dereferenceable(56) %0, ptr noundef %1, ptr noundef %2) #1 align 2 {
  %4 = alloca ptr, align 8
  %5 = alloca ptr, align 8
  %6 = alloca ptr, align 8
  %7 = alloca [100 x i8], align 16
  store ptr %0, ptr %4, align 8
  store ptr %1, ptr %5, align 8
  store ptr %2, ptr %6, align 8
  %8 = load ptr, ptr %4, align 8
  %9 = getelementptr inbounds [100 x i8], ptr %7, i64 0, i64 0
  %10 = load ptr, ptr %6, align 8
  %11 = getelementptr inbounds %class.HashtableTextDump, ptr %8, i32 0, i32 7
  %12 = load i32, ptr %11, align 4
  %13 = load ptr, ptr %5, align 8
  %14 = getelementptr inbounds %class.HashtableTextDump, ptr %8, i32 0, i32 1
  %15 = load ptr, ptr %14, align 8
  %16 = ptrtoint ptr %13 to i64
  %17 = ptrtoint ptr %15 to i64
  %18 = sub i64 %16, %17
  %19 = trunc i64 %18 to i32
  %20 = call i32 (ptr, i64, ptr, ...) @jio_snprintf(ptr noundef %9, i64 noundef 100, ptr noundef @.str.18, ptr noundef %10, i32 noundef %12, i32 noundef %19)
  %21 = getelementptr inbounds [100 x i8], ptr %7, i64 0, i64 0
  %22 = getelementptr inbounds %class.HashtableTextDump, ptr %8, i32 0, i32 4
  %23 = load ptr, ptr %22, align 8
  call void @_ZN17HashtableTextDump4quitEPKcS1_(ptr noundef nonnull align 8 dereferenceable(56) %8, ptr noundef %21, ptr noundef %23)
  ret void
}

; Function Attrs: mustprogress nounwind uwtable
define linkonce_odr hidden void @_ZN17HashtableTextDump12corrupted_ifEbPKc(ptr noundef nonnull align 8 dereferenceable(56) %0, i1 noundef zeroext %1, ptr noundef %2) #1 comdat align 2 {
  %4 = alloca ptr, align 8
  %5 = alloca i8, align 1
  %6 = alloca ptr, align 8
  store ptr %0, ptr %4, align 8
  %7 = zext i1 %1 to i8
  store i8 %7, ptr %5, align 1
  store ptr %2, ptr %6, align 8
  %8 = load ptr, ptr %4, align 8
  %9 = load i8, ptr %5, align 1
  %10 = trunc i8 %9 to i1
  br i1 %10, label %11, label %15

11:                                               ; preds = %3
  %12 = getelementptr inbounds %class.HashtableTextDump, ptr %8, i32 0, i32 2
  %13 = load ptr, ptr %12, align 8
  %14 = load ptr, ptr %6, align 8
  call void @_ZN17HashtableTextDump9corruptedEPKcS1_(ptr noundef nonnull align 8 dereferenceable(56) %8, ptr noundef %13, ptr noundef %14)
  br label %15

15:                                               ; preds = %11, %3
  ret void
}

; Function Attrs: mustprogress nounwind uwtable
define linkonce_odr hidden noundef i32 @_ZN17HashtableTextDump6remainEv(ptr noundef nonnull align 8 dereferenceable(56) %0) #1 comdat align 2 {
  %2 = alloca ptr, align 8
  store ptr %0, ptr %2, align 8
  %3 = load ptr, ptr %2, align 8
  %4 = getelementptr inbounds %class.HashtableTextDump, ptr %3, i32 0, i32 3
  %5 = load ptr, ptr %4, align 8
  %6 = getelementptr inbounds %class.HashtableTextDump, ptr %3, i32 0, i32 2
  %7 = load ptr, ptr %6, align 8
  %8 = ptrtoint ptr %5 to i64
  %9 = ptrtoint ptr %7 to i64
  %10 = sub i64 %8, %9
  %11 = trunc i64 %10 to i32
  ret i32 %11
}

; Function Attrs: mustprogress nounwind uwtable
define hidden void @_ZN17HashtableTextDump9skip_pastEc(ptr noundef nonnull align 8 dereferenceable(56) %0, i8 noundef signext %1) #1 align 2 {
  %3 = alloca ptr, align 8
  %4 = alloca i8, align 1
  store ptr %0, ptr %3, align 8
  store i8 %1, ptr %4, align 1
  %5 = load ptr, ptr %3, align 8
  br label %6

6:                                                ; preds = %18, %2
  %7 = call noundef i32 @_ZN17HashtableTextDump6remainEv(ptr noundef nonnull align 8 dereferenceable(56) %5)
  %8 = icmp slt i32 %7, 1
  call void @_ZN17HashtableTextDump12corrupted_ifEbPKc(ptr noundef nonnull align 8 dereferenceable(56) %5, i1 noundef zeroext %8, ptr noundef @.str.20)
  %9 = getelementptr inbounds %class.HashtableTextDump, ptr %5, i32 0, i32 2
  %10 = load ptr, ptr %9, align 8
  %11 = getelementptr inbounds i8, ptr %10, i32 1
  store ptr %11, ptr %9, align 8
  %12 = load i8, ptr %10, align 1
  %13 = sext i8 %12 to i32
  %14 = load i8, ptr %4, align 1
  %15 = sext i8 %14 to i32
  %16 = icmp eq i32 %13, %15
  br i1 %16, label %17, label %18

17:                                               ; preds = %6
  ret void

18:                                               ; preds = %6
  br label %6, !llvm.loop !12
}