; Function Attrs: mustprogress nounwind uwtable
define hidden void @_ZN17HashtableTextDump9skip_pastEc(ptr nocapture noundef nonnull align 8 dereferenceable(56) %0, i8 noundef signext %1) local_unnamed_addr #0 align 2 {
  %3 = alloca [100 x i8], align 16
  %4 = getelementptr inbounds i8, ptr %0, i64 24
  %5 = getelementptr inbounds i8, ptr %0, i64 16
  %6 = getelementptr inbounds i8, ptr %0, i64 52
  %7 = getelementptr inbounds i8, ptr %0, i64 8
  %8 = getelementptr inbounds i8, ptr %0, i64 32
  %.pre = load ptr, ptr %5, align 8
  br label %9

9:                                                ; preds = %_ZN17HashtableTextDump12corrupted_ifEbPKc.exit, %2
  %10 = phi ptr [ %26, %_ZN17HashtableTextDump12corrupted_ifEbPKc.exit ], [ %.pre, %2 ]
  %11 = load ptr, ptr %4, align 8
  %12 = ptrtoint ptr %11 to i64
  %13 = ptrtoint ptr %10 to i64
  %14 = sub i64 %12, %13
  %15 = trunc i64 %14 to i32
  %16 = icmp slt i32 %15, 1
  br i1 %16, label %17, label %_ZN17HashtableTextDump12corrupted_ifEbPKc.exit

17:                                               ; preds = %9
  call void @llvm.lifetime.start.p0(i64 100, ptr nonnull %3)
  %18 = load i32, ptr %6, align 4
  %19 = load ptr, ptr %7, align 8
  %20 = ptrtoint ptr %19 to i64
  %21 = sub i64 %13, %20
  %22 = trunc i64 %21 to i32
  %23 = call i32 (ptr, i64, ptr, ...) @jio_snprintf(ptr noundef nonnull %3, i64 noundef 100, ptr noundef nonnull @.str.18, ptr noundef nonnull @.str.20, i32 noundef %18, i32 noundef %22) #14
  %24 = load ptr, ptr %8, align 8
  call void @_Z29vm_exit_during_initializationPKcS0_(ptr noundef nonnull %3, ptr noundef %24) #14
  call void @llvm.lifetime.end.p0(i64 100, ptr nonnull %3)
  %.pre1 = load ptr, ptr %5, align 8
  br label %_ZN17HashtableTextDump12corrupted_ifEbPKc.exit

_ZN17HashtableTextDump12corrupted_ifEbPKc.exit:   ; preds = %9, %17
  %25 = phi ptr [ %10, %9 ], [ %.pre1, %17 ]
  %26 = getelementptr inbounds i8, ptr %25, i64 1
  store ptr %26, ptr %5, align 8
  %27 = load i8, ptr %25, align 1
  %28 = icmp eq i8 %27, %1
  br i1 %28, label %29, label %9, !llvm.loop !13

29:                                               ; preds = %_ZN17HashtableTextDump12corrupted_ifEbPKc.exit
  ret void
}